; Function Attrs: mustprogress nounwind uwtable
define hidden void @_ZN2cv11TiffDecoderD2Ev(ptr noundef nonnull align 8 dereferenceable(400) initializes((368, 376)) %0) unnamed_addr #4 align 2 personality ptr @__gxx_personality_v0 {
  %2 = getelementptr inbounds nuw i8, ptr %0, i64 368
  store ptr null, ptr %2, align 8, !tbaa !58
  %3 = getelementptr inbounds nuw i8, ptr %0, i64 376
  %4 = load ptr, ptr %3, align 8, !tbaa !59
  store ptr null, ptr %3, align 8, !tbaa !59
  %.not.i.i.i.i.i = icmp eq ptr %4, null
  br i1 %.not.i.i.i.i.i, label %_ZNSt12__shared_ptrIvLN9__gnu_cxx12_Lock_policyE2EED2Ev.exit, label %5

5:                                                ; preds = %1
  %6 = getelementptr inbounds nuw i8, ptr %4, i64 8
  %7 = load atomic i64, ptr %6 acquire, align 8
  %8 = icmp eq i64 %7, 4294967297
  %9 = trunc i64 %7 to i32
  br i1 %8, label %10, label %18

10:                                               ; preds = %5
  store i32 0, ptr %6, align 8, !tbaa !60
  %11 = getelementptr inbounds nuw i8, ptr %4, i64 12
  store i32 0, ptr %11, align 4, !tbaa !62
  %12 = load ptr, ptr %4, align 8, !tbaa !3
  %13 = getelementptr inbounds nuw i8, ptr %12, i64 16
  %14 = load ptr, ptr %13, align 8
  tail call void %14(ptr noundef nonnull align 8 dereferenceable(16) %4) #23
  %15 = load ptr, ptr %4, align 8, !tbaa !3
  %16 = getelementptr inbounds nuw i8, ptr %15, i64 24
  %17 = load ptr, ptr %16, align 8
  tail call void %17(ptr noundef nonnull align 8 dereferenceable(16) %4) #23
  br label %_ZN2cv11TiffDecoder5closeEv.exit

18:                                               ; preds = %5
  %19 = load i8, ptr @__libc_single_threaded, align 1, !tbaa !63
  %.not.i.i.i.i.i.i = icmp eq i8 %19, 0
  br i1 %.not.i.i.i.i.i.i, label %22, label %20

20:                                               ; preds = %18
  %21 = add nsw i32 %9, -1
  store i32 %21, ptr %6, align 4, !tbaa !64
  br label %_ZN9__gnu_cxx27__exchange_and_add_dispatchEPii.exit.i.i.i.i.i.i

22:                                               ; preds = %18
  %23 = atomicrmw volatile add ptr %6, i32 -1 acq_rel, align 4
  br label %_ZN9__gnu_cxx27__exchange_and_add_dispatchEPii.exit.i.i.i.i.i.i

_ZN9__gnu_cxx27__exchange_and_add_dispatchEPii.exit.i.i.i.i.i.i: ; preds = %22, %20
  %.0.i.i.i.i.i.i.i = phi i32 [ %9, %20 ], [ %23, %22 ]
  %24 = icmp eq i32 %.0.i.i.i.i.i.i.i, 1
  br i1 %24, label %25, label %_ZN2cv11TiffDecoder5closeEv.exit, !prof !65

25:                                               ; preds = %_ZN9__gnu_cxx27__exchange_and_add_dispatchEPii.exit.i.i.i.i.i.i
  tail call void @_ZNSt16_Sp_counted_baseILN9__gnu_cxx12_Lock_policyE2EE24_M_release_last_use_coldEv(ptr noundef nonnull align 8 dereferenceable(16) %4) #23
  br label %_ZN2cv11TiffDecoder5closeEv.exit

_ZN2cv11TiffDecoder5closeEv.exit:                 ; preds = %25, %_ZN9__gnu_cxx27__exchange_and_add_dispatchEPii.exit.i.i.i.i.i.i, %10
  %.pr = load ptr, ptr %3, align 8, !tbaa !59
  %.not.i.i = icmp eq ptr %.pr, null
  br i1 %.not.i.i, label %_ZNSt12__shared_ptrIvLN9__gnu_cxx12_Lock_policyE2EED2Ev.exit, label %26

26:                                               ; preds = %_ZN2cv11TiffDecoder5closeEv.exit
  %27 = getelementptr inbounds nuw i8, ptr %.pr, i64 8
  %28 = load atomic i64, ptr %27 acquire, align 8
  %29 = icmp eq i64 %28, 4294967297
  %30 = trunc i64 %28 to i32
  br i1 %29, label %31, label %39

31:                                               ; preds = %26
  store i32 0, ptr %27, align 8, !tbaa !60
  %32 = getelementptr inbounds nuw i8, ptr %.pr, i64 12
  store i32 0, ptr %32, align 4, !tbaa !62
  %33 = load ptr, ptr %.pr, align 8, !tbaa !3
  %34 = getelementptr inbounds nuw i8, ptr %33, i64 16
  %35 = load ptr, ptr %34, align 8
  tail call void %35(ptr noundef nonnull align 8 dereferenceable(16) %.pr) #23
  %36 = load ptr, ptr %.pr, align 8, !tbaa !3
  %37 = getelementptr inbounds nuw i8, ptr %36, i64 24
  %38 = load ptr, ptr %37, align 8
  tail call void %38(ptr noundef nonnull align 8 dereferenceable(16) %.pr) #23
  br label %_ZNSt12__shared_ptrIvLN9__gnu_cxx12_Lock_policyE2EED2Ev.exit

39:                                               ; preds = %26
  %40 = load i8, ptr @__libc_single_threaded, align 1, !tbaa !63
  %.not.i.i.i = icmp eq i8 %40, 0
  br i1 %.not.i.i.i, label %43, label %41

41:                                               ; preds = %39
  %42 = add nsw i32 %30, -1
  store i32 %42, ptr %27, align 4, !tbaa !64
  br label %_ZN9__gnu_cxx27__exchange_and_add_dispatchEPii.exit.i.i.i

43:                                               ; preds = %39
  %44 = atomicrmw volatile add ptr %27, i32 -1 acq_rel, align 4
  br label %_ZN9__gnu_cxx27__exchange_and_add_dispatchEPii.exit.i.i.i

_ZN9__gnu_cxx27__exchange_and_add_dispatchEPii.exit.i.i.i: ; preds = %43, %41
  %.0.i.i.i.i = phi i32 [ %30, %41 ], [ %44, %43 ]
  %45 = icmp eq i32 %.0.i.i.i.i, 1
  br i1 %45, label %46, label %_ZNSt12__shared_ptrIvLN9__gnu_cxx12_Lock_policyE2EED2Ev.exit, !prof !65

46:                                               ; preds = %_ZN9__gnu_cxx27__exchange_and_add_dispatchEPii.exit.i.i.i
  tail call void @_ZNSt16_Sp_counted_baseILN9__gnu_cxx12_Lock_policyE2EE24_M_release_last_use_coldEv(ptr noundef nonnull align 8 dereferenceable(16) %.pr) #23
  br label %_ZNSt12__shared_ptrIvLN9__gnu_cxx12_Lock_policyE2EED2Ev.exit

_ZNSt12__shared_ptrIvLN9__gnu_cxx12_Lock_policyE2EED2Ev.exit: ; preds = %1, %_ZN2cv11TiffDecoder5closeEv.exit, %31, %_ZN9__gnu_cxx27__exchange_and_add_dispatchEPii.exit.i.i.i, %46
  tail call void @_ZN2cv16BaseImageDecoderD2Ev(ptr noundef nonnull align 8 dereferenceable(368) %0) #23
  ret void
}